target datalayout = "e-m:e-p270:32:32-p271:32:32-p272:64:64-i64:64-i128:128-f80:128-n8:16:32:64-S128"
target triple = "x86_64-pc-linux-gnu"

@H5P_CLS_LINK_ACCESS_ID_g = external global i64, align 8
@H5_libinit_g = external global i8, align 1
@H5_libterm_g = external global i8, align 1
@.str.1 = private unnamed_addr constant [101 x i8] c"generated/home/dtcxzyw/WorkSpace/Projects/compilers/llvm-opt-benchmark/bench/hdf5/hdf5/src/H5Plapl.c\00", align 1
@H5E_FUNC_g = external global i64, align 8
@H5E_CANTINIT_g = external global i64, align 8
@.str.2 = private unnamed_addr constant [30 x i8] c"library initialization failed\00", align 1
@H5E_CANTSET_g = external global i64, align 8
@.str.3 = private unnamed_addr constant [22 x i8] c"can't set API context\00", align 1
@H5E_ARGS_g = external global i64, align 8
@H5E_BADVALUE_g = external global i64, align 8
@H5E_ID_g = external global i64, align 8
@H5E_BADID_g = external global i64, align 8
@.str.5 = private unnamed_addr constant [25 x i8] c"can't find object for ID\00", align 1
@H5E_PLIST_g = external global i64, align 8
@__func__.H5Pset_elink_acc_flags = private unnamed_addr constant [23 x i8] c"H5Pset_elink_acc_flags\00", align 1
@.str.17 = private unnamed_addr constant [24 x i8] c"invalid file open flags\00", align 1
@.str.18 = private unnamed_addr constant [20 x i8] c"external link flags\00", align 1
@.str.19 = private unnamed_addr constant [23 x i8] c"can't set access flags\00", align 1

; Function Attrs: nounwind uwtable
define i32 @H5Pset_elink_acc_flags(i64 noundef %0, i32 noundef %1) #0 {
  %3 = alloca i64, align 8
  %4 = alloca i32, align 4
  %5 = alloca ptr, align 8
  %6 = alloca i32, align 4
  %7 = alloca i8, align 1
  %8 = alloca i8, align 1
  store i64 %0, ptr %3, align 8
  store i32 %1, ptr %4, align 4
  store i32 0, ptr %6, align 4
  store i8 0, ptr %7, align 1
  store i8 0, ptr %8, align 1
  %9 = load i8, ptr @H5_libinit_g, align 1
  %10 = trunc i8 %9 to i1
  br i1 %10, label %15, label %11

11:                                               ; preds = %2
  %12 = load i8, ptr @H5_libterm_g, align 1
  %13 = trunc i8 %12 to i1
  %14 = xor i1 %13, true
  br label %15

15:                                               ; preds = %11, %2
  %16 = phi i1 [ false, %2 ], [ %14, %11 ]
  %17 = xor i1 %16, true
  %18 = xor i1 %17, true
  %19 = zext i1 %18 to i32
  %20 = sext i32 %19 to i64
  %21 = icmp ne i64 %20, 0
  br i1 %21, label %22, label %46

22:                                               ; preds = %15
  %23 = call i32 @H5_init_library()
  %24 = icmp slt i32 %23, 0
  %25 = xor i1 %24, true
  %26 = xor i1 %25, true
  %27 = zext i1 %26 to i32
  %28 = sext i32 %27 to i64
  %29 = icmp ne i64 %28, 0
  br i1 %29, label %30, label %45

30:                                               ; preds = %22
  br label %31

31:                                               ; preds = %30
  br label %32

32:                                               ; preds = %31
  br label %33

33:                                               ; preds = %32
  %34 = load i64, ptr @H5E_FUNC_g, align 8
  %35 = load i64, ptr @H5E_CANTINIT_g, align 8
  %36 = call i32 (ptr, ptr, i32, i64, i64, ptr, ...) @H5E_printf_stack(ptr noundef @.str.1, ptr noundef @__func__.H5Pset_elink_acc_flags, i32 noundef 1068, i64 noundef %34, i64 noundef %35, ptr noundef @.str.2)
  br label %37

37:                                               ; preds = %33
  store i8 1, ptr %8, align 1
  %38 = load i8, ptr %8, align 1
  %39 = trunc i8 %38 to i1
  %40 = zext i1 %39 to i8
  store i8 %40, ptr %8, align 1
  br label %41

41:                                               ; preds = %37
  br label %42

42:                                               ; preds = %41
  store i32 -1, ptr %6, align 4
  br label %141

43:                                               ; No predecessors!
  br label %44

44:                                               ; preds = %43
  br label %45

45:                                               ; preds = %44, %22
  br label %46

46:                                               ; preds = %45, %15
  %47 = call i32 @H5CX_push()
  %48 = icmp slt i32 %47, 0
  %49 = xor i1 %48, true
  %50 = xor i1 %49, true
  %51 = zext i1 %50 to i32
  %52 = sext i32 %51 to i64
  %53 = icmp ne i64 %52, 0
  br i1 %53, label %54, label %69

54:                                               ; preds = %46
  br label %55

55:                                               ; preds = %54
  br label %56

56:                                               ; preds = %55
  br label %57

57:                                               ; preds = %56
  %58 = load i64, ptr @H5E_FUNC_g, align 8
  %59 = load i64, ptr @H5E_CANTSET_g, align 8
  %60 = call i32 (ptr, ptr, i32, i64, i64, ptr, ...) @H5E_printf_stack(ptr noundef @.str.1, ptr noundef @__func__.H5Pset_elink_acc_flags, i32 noundef 1068, i64 noundef %58, i64 noundef %59, ptr noundef @.str.3)
  br label %61

61:                                               ; preds = %57
  store i8 1, ptr %8, align 1
  %62 = load i8, ptr %8, align 1
  %63 = trunc i8 %62 to i1
  %64 = zext i1 %63 to i8
  store i8 %64, ptr %8, align 1
  br label %65

65:                                               ; preds = %61
  br label %66

66:                                               ; preds = %65
  store i32 -1, ptr %6, align 4
  br label %141

67:                                               ; No predecessors!
  br label %68

68:                                               ; preds = %67
  br label %70

69:                                               ; preds = %46
  store i8 1, ptr %7, align 1
  br label %70

70:                                               ; preds = %69, %68
  %71 = call i32 @H5E_clear_stack()
  %72 = load i32, ptr %4, align 4
  %73 = icmp ne i32 %72, 1
  br i1 %73, label %74, label %101

74:                                               ; preds = %70
  %75 = load i32, ptr %4, align 4
  %76 = icmp ne i32 %75, 33
  br i1 %76, label %77, label %101

77:                                               ; preds = %74
  %78 = load i32, ptr %4, align 4
  %79 = icmp ne i32 %78, 0
  br i1 %79, label %80, label %101

80:                                               ; preds = %77
  %81 = load i32, ptr %4, align 4
  %82 = icmp ne i32 %81, 64
  br i1 %82, label %83, label %101

83:                                               ; preds = %80
  %84 = load i32, ptr %4, align 4
  %85 = icmp ne i32 %84, 65535
  br i1 %85, label %86, label %101

86:                                               ; preds = %83
  br label %87

87:                                               ; preds = %86
  br label %88

88:                                               ; preds = %87
  br label %89

89:                                               ; preds = %88
  %90 = load i64, ptr @H5E_ARGS_g, align 8
  %91 = load i64, ptr @H5E_BADVALUE_g, align 8
  %92 = call i32 (ptr, ptr, i32, i64, i64, ptr, ...) @H5E_printf_stack(ptr noundef @.str.1, ptr noundef @__func__.H5Pset_elink_acc_flags, i32 noundef 1074, i64 noundef %90, i64 noundef %91, ptr noundef @.str.17)
  br label %93

93:                                               ; preds = %89
  store i8 1, ptr %8, align 1
  %94 = load i8, ptr %8, align 1
  %95 = trunc i8 %94 to i1
  %96 = zext i1 %95 to i8
  store i8 %96, ptr %8, align 1
  br label %97

97:                                               ; preds = %93
  br label %98

98:                                               ; preds = %97
  store i32 -1, ptr %6, align 4
  br label %141

99:                                               ; No predecessors!
  br label %100

100:                                              ; preds = %99
  br label %101

101:                                              ; preds = %100, %83, %80, %77, %74, %70
  %102 = load i64, ptr %3, align 8
  %103 = load i64, ptr @H5P_CLS_LINK_ACCESS_ID_g, align 8
  %104 = call ptr @H5P_object_verify(i64 noundef %102, i64 noundef %103)
  store ptr %104, ptr %5, align 8
  %105 = icmp eq ptr null, %104
  br i1 %105, label %106, label %121

106:                                              ; preds = %101
  br label %107

107:                                              ; preds = %106
  br label %108

108:                                              ; preds = %107
  br label %109

109:                                              ; preds = %108
  %110 = load i64, ptr @H5E_ID_g, align 8
  %111 = load i64, ptr @H5E_BADID_g, align 8
  %112 = call i32 (ptr, ptr, i32, i64, i64, ptr, ...) @H5E_printf_stack(ptr noundef @.str.1, ptr noundef @__func__.H5Pset_elink_acc_flags, i32 noundef 1078, i64 noundef %110, i64 noundef %111, ptr noundef @.str.5)
  br label %113

113:                                              ; preds = %109
  store i8 1, ptr %8, align 1
  %114 = load i8, ptr %8, align 1
  %115 = trunc i8 %114 to i1
  %116 = zext i1 %115 to i8
  store i8 %116, ptr %8, align 1
  br label %117

117:                                              ; preds = %113
  br label %118

118:                                              ; preds = %117
  store i32 -1, ptr %6, align 4
  br label %141

119:                                              ; No predecessors!
  br label %120

120:                                              ; preds = %119
  br label %121

121:                                              ; preds = %120, %101
  %122 = load ptr, ptr %5, align 8
  %123 = call i32 @H5P_set(ptr noundef %122, ptr noundef @.str.18, ptr noundef %4)
  %124 = icmp slt i32 %123, 0
  br i1 %124, label %125, label %140

125:                                              ; preds = %121
  br label %126

126:                                              ; preds = %125
  br label %127

127:                                              ; preds = %126
  br label %128

128:                                              ; preds = %127
  %129 = load i64, ptr @H5E_PLIST_g, align 8
  %130 = load i64, ptr @H5E_CANTSET_g, align 8
  %131 = call i32 (ptr, ptr, i32, i64, i64, ptr, ...) @H5E_printf_stack(ptr noundef @.str.1, ptr noundef @__func__.H5Pset_elink_acc_flags, i32 noundef 1082, i64 noundef %129, i64 noundef %130, ptr noundef @.str.19)
  br label %132

132:                                              ; preds = %128
  store i8 1, ptr %8, align 1
  %133 = load i8, ptr %8, align 1
  %134 = trunc i8 %133 to i1
  %135 = zext i1 %134 to i8
  store i8 %135, ptr %8, align 1
  br label %136

136:                                              ; preds = %132
  br label %137

137:                                              ; preds = %136
  store i32 -1, ptr %6, align 4
  br label %141

138:                                              ; No predecessors!
  br label %139

139:                                              ; preds = %138
  br label %140

140:                                              ; preds = %139, %121
  br label %141

141:                                              ; preds = %140, %137, %118, %98, %66, %42
  %142 = load i8, ptr %7, align 1
  %143 = trunc i8 %142 to i1
  %144 = xor i1 %143, true
  %145 = xor i1 %144, true
  %146 = zext i1 %145 to i32
  %147 = sext i32 %146 to i64
  %148 = icmp ne i64 %147, 0
  br i1 %148, label %149, label %151

149:                                              ; preds = %141
  %150 = call i32 @H5CX_pop(i1 noundef zeroext true)
  store i8 0, ptr %7, align 1
  br label %151

151:                                              ; preds = %149, %141
  %152 = load i8, ptr %8, align 1
  %153 = trunc i8 %152 to i1
  %154 = xor i1 %153, true
  %155 = xor i1 %154, true
  %156 = zext i1 %155 to i32
  %157 = sext i32 %156 to i64
  %158 = icmp ne i64 %157, 0
  br i1 %158, label %159, label %161

159:                                              ; preds = %151
  %160 = call i32 @H5E_dump_api_stack()
  br label %161

161:                                              ; preds = %159, %151
  %162 = load i32, ptr %6, align 4
  ret i32 %162
}