; Function Attrs: nounwind uwtable
define range(i32 -1, 1) i32 @H5Pset_elink_acc_flags(i64 noundef %0, i32 noundef %1) local_unnamed_addr #0 {
  %3 = alloca i32, align 4
  store i32 %1, ptr %3, align 4
  %4 = load i8, ptr @H5_libinit_g, align 1
  %5 = trunc i8 %4 to i1
  %6 = load i8, ptr @H5_libterm_g, align 1
  %7 = trunc i8 %6 to i1
  %8 = select i1 %5, i1 true, i1 %7
  br i1 %8, label %16, label %9

9:                                                ; preds = %2
  %10 = tail call i32 @H5_init_library() #8
  %11 = icmp slt i32 %10, 0
  br i1 %11, label %12, label %16

12:                                               ; preds = %9
  %13 = load i64, ptr @H5E_FUNC_g, align 8
  %14 = load i64, ptr @H5E_CANTINIT_g, align 8
  %15 = tail call i32 (ptr, ptr, i32, i64, i64, ptr, ...) @H5E_printf_stack(ptr noundef nonnull @.str.1, ptr noundef nonnull @__func__.H5Pset_elink_acc_flags, i32 noundef 1068, i64 noundef %13, i64 noundef %14, ptr noundef nonnull @.str.2) #8
  br label %.thread27

16:                                               ; preds = %9, %2
  %17 = tail call i32 @H5CX_push() #8
  %18 = icmp slt i32 %17, 0
  br i1 %18, label %19, label %23

19:                                               ; preds = %16
  %20 = load i64, ptr @H5E_FUNC_g, align 8
  %21 = load i64, ptr @H5E_CANTSET_g, align 8
  %22 = tail call i32 (ptr, ptr, i32, i64, i64, ptr, ...) @H5E_printf_stack(ptr noundef nonnull @.str.1, ptr noundef nonnull @__func__.H5Pset_elink_acc_flags, i32 noundef 1068, i64 noundef %20, i64 noundef %21, ptr noundef nonnull @.str.3) #8
  br label %.thread27

23:                                               ; preds = %16
  %24 = tail call i32 @H5E_clear_stack() #8
  switch i32 %1, label %25 [
    i32 65535, label %29
    i32 64, label %29
    i32 33, label %29
    i32 1, label %29
    i32 0, label %29
  ]

25:                                               ; preds = %23
  %26 = load i64, ptr @H5E_ARGS_g, align 8
  %27 = load i64, ptr @H5E_BADVALUE_g, align 8
  %28 = tail call i32 (ptr, ptr, i32, i64, i64, ptr, ...) @H5E_printf_stack(ptr noundef nonnull @.str.1, ptr noundef nonnull @__func__.H5Pset_elink_acc_flags, i32 noundef 1074, i64 noundef %26, i64 noundef %27, ptr noundef nonnull @.str.17) #8
  br label %.thread33

29:                                               ; preds = %23, %23, %23, %23, %23
  %30 = load i64, ptr @H5P_CLS_LINK_ACCESS_ID_g, align 8
  %31 = tail call ptr @H5P_object_verify(i64 noundef %0, i64 noundef %30) #8
  %32 = icmp eq ptr %31, null
  br i1 %32, label %33, label %37

33:                                               ; preds = %29
  %34 = load i64, ptr @H5E_ID_g, align 8
  %35 = load i64, ptr @H5E_BADID_g, align 8
  %36 = tail call i32 (ptr, ptr, i32, i64, i64, ptr, ...) @H5E_printf_stack(ptr noundef nonnull @.str.1, ptr noundef nonnull @__func__.H5Pset_elink_acc_flags, i32 noundef 1078, i64 noundef %34, i64 noundef %35, ptr noundef nonnull @.str.5) #8
  br label %.thread33

37:                                               ; preds = %29
  %38 = call i32 @H5P_set(ptr noundef nonnull %31, ptr noundef nonnull @.str.18, ptr noundef nonnull %3) #8
  %39 = icmp slt i32 %38, 0
  br i1 %39, label %40, label %45

40:                                               ; preds = %37
  %41 = load i64, ptr @H5E_PLIST_g, align 8
  %42 = load i64, ptr @H5E_CANTSET_g, align 8
  %43 = call i32 (ptr, ptr, i32, i64, i64, ptr, ...) @H5E_printf_stack(ptr noundef nonnull @.str.1, ptr noundef nonnull @__func__.H5Pset_elink_acc_flags, i32 noundef 1082, i64 noundef %41, i64 noundef %42, ptr noundef nonnull @.str.19) #8
  br label %.thread33

.thread33:                                        ; preds = %40, %33, %25
  %44 = call i32 @H5CX_pop(i1 noundef zeroext true) #8
  br label %.thread27

45:                                               ; preds = %37
  %46 = call i32 @H5CX_pop(i1 noundef zeroext true) #8
  br label %48

.thread27:                                        ; preds = %19, %12, %.thread33
  %47 = call i32 @H5E_dump_api_stack() #8
  br label %48

48:                                               ; preds = %45, %.thread27
  %.0172230 = phi i32 [ -1, %.thread27 ], [ 0, %45 ]
  ret i32 %.0172230
}